target datalayout = "e-m:e-p270:32:32-p271:32:32-p272:64:64-i64:64-i128:128-f80:128-n8:16:32:64-S128"
target triple = "x86_64-pc-linux-gnu"

; Function Attrs: nounwind uwtable
define ptr @phpdbg_resolve_path(ptr noundef %0) #0 {
  %2 = alloca ptr, align 8
  %3 = alloca ptr, align 8
  %4 = alloca [4096 x i8], align 16
  store ptr %0, ptr %3, align 8
  %5 = load ptr, ptr %3, align 8
  %6 = getelementptr inbounds [4096 x i8], ptr %4, i64 0, i64 0
  %7 = call ptr @expand_filepath(ptr noundef %5, ptr noundef %6)
  %8 = icmp eq ptr %7, null
  br i1 %8, label %9, label %10

9:                                                ; preds = %1
  store ptr null, ptr %2, align 8
  br label %13

10:                                               ; preds = %1
  %11 = getelementptr inbounds [4096 x i8], ptr %4, i64 0, i64 0
  %12 = call noalias ptr @strdup(ptr noundef %11) #13
  store ptr %12, ptr %2, align 8
  br label %13

13:                                               ; preds = %10, %9
  %14 = load ptr, ptr %2, align 8
  ret ptr %14
}