; Function Attrs: nounwind uwtable
define noalias ptr @phpdbg_resolve_path(ptr noundef %0) local_unnamed_addr #3 {
  %2 = alloca [4096 x i8], align 16
  %3 = call ptr @expand_filepath(ptr noundef %0, ptr noundef nonnull %2) #25
  %4 = icmp eq ptr %3, null
  br i1 %4, label %7, label %5

5:                                                ; preds = %1
  %6 = call noalias ptr @strdup(ptr noundef nonnull %2) #25
  br label %7

7:                                                ; preds = %1, %5
  %.0 = phi ptr [ %6, %5 ], [ null, %1 ]
  ret ptr %.0
}